; Function Attrs: mustprogress nofree norecurse nosync nounwind willreturn memory(argmem: read) uwtable
define noundef zeroext i1 @_ZNK8QuantLib8Schedule12hasIsRegularEv(ptr nocapture noundef nonnull readonly align 8 dereferenceable(136) %this) local_unnamed_addr #11 align 2 personality ptr @__gxx_personality_v0 {
entry:
  %isRegular_ = getelementptr inbounds nuw i8, ptr %this, i64 96
  %0 = load ptr, ptr %isRegular_, align 8, !tbaa !54
  %_M_finish.i.i = getelementptr inbounds nuw i8, ptr %this, i64 112
  %1 = load ptr, ptr %_M_finish.i.i, align 8, !tbaa !54
  %_M_offset.i.i.i = getelementptr inbounds nuw i8, ptr %this, i64 120
  %2 = load i32, ptr %_M_offset.i.i.i, align 8, !tbaa !55
  %cmp.i.i = icmp ne ptr %0, %1
  %cmp3.i.i = icmp ne i32 %2, 0
  %.not = select i1 %cmp.i.i, i1 true, i1 %cmp3.i.i
  ret i1 %.not
}